(lp0
(F-71.1087
F42.34572
tp1
a(F-71.10148
F42.3476817
tp2
a(F-71.102557
F42.347378
tp3
a(F-71.10966
F42.34546
tp4
a(F-71.111493
F42.344961
tp5
a(F-71.11438
F42.34416
tp6
a(F-71.1055531
F42.3465814
tp7
a(F-71.107801
F42.345982
tp8
a(F-71.110631
F42.345191
tp9
a(F-71.1003501
F42.3479858
tp10
a(F-71.106751
F42.34627
tp11
a(F-71.1046958
F42.346798
tp12
a(F-71.0988364
F42.3483922
tp13
a(F-71.0999951
F42.3480814
tp14
a(F-71.104442
F42.34686
tp15
a(F-71.101936
F42.347546
tp16
a(F-71.098227
F42.3485571
tp17
a(F-71.1041
F42.346953
tp18
a(F-71.110908
F42.345117
tp19
a(F-71.1135
F42.34441
tp20
a(F-71.112243
F42.344753
tp21
a(F-71.0979337
F42.3486438
tp22
a(F-71.112574
F42.344649
tp23
a(F-71.0976691
F42.3487221
tp24
a(F-71.106821
F42.346253
tp25
a(F-71.1033357
F42.3471627
tp26
a(F-71.1051194
F42.3466865
tp27
a(F-71.1091443
F42.3455927
tp28
a.