(lp0
(lp1
(F-71.097693
F42.348753
tp2
a(F-71.097847
F42.348712
tp3
a(F-71.097992
F42.348667
tp4
a(F-71.098137
F42.348617
tp5
a(F-71.098282
F42.348567
tp6
a(F-71.098442
F42.348518
tp7
a(F-71.098602
F42.348468
tp8
a(F-71.098777
F42.348418
tp9
a(F-71.098952
F42.348368
tp10
a(F-71.099128
F42.34832
tp11
a(F-71.099303
F42.34827
tp12
a(F-71.099478
F42.348228
tp13
a(F-71.099655
F42.348182
tp14
a(F-71.09983
F42.348137
tp15
a(F-71.099998
F42.34809
tp16
a(F-71.10018
F42.34804
tp17
a(F-71.100348
F42.347992
tp18
a(F-71.100532
F42.347942
tp19
a(F-71.100707
F42.347892
tp20
a(F-71.100883
F42.347842
tp21
a(F-71.10105
F42.347793
tp22
a(F-71.10121
F42.34775
tp23
a(F-71.101355
F42.347713
tp24
a(F-71.1015
F42.34767
tp25
a(F-71.101653
F42.347633
tp26
a(F-71.101798
F42.347595
tp27
a(F-71.101943
F42.347552
tp28
a(F-71.102095
F42.34751
tp29
a(F-71.10224
F42.347472
tp30
a(F-71.10237
F42.347433
tp31
a(F-71.102508
F42.347397
tp32
a(F-71.102645
F42.347362
tp33
a(F-71.102775
F42.347332
tp34
a(F-71.102912
F42.3473
tp35
a(F-71.103033
F42.34727
tp36
a(F-71.103157
F42.34724
tp37
a(F-71.103263
F42.347213
tp38
a(F-71.103377
F42.347182
tp39
a(F-71.103485
F42.347155
tp40
a(F-71.103592
F42.347128
tp41
a(F-71.10369
F42.347102
tp42
a(F-71.103797
F42.34708
tp43
a(F-71.103897
F42.347053
tp44
a(F-71.103973
F42.347033
tp45
a(F-71.104042
F42.347015
tp46
a(F-71.104095
F42.347
tp47
a(F-71.104133
F42.346992
tp48
a(F-71.104172
F42.34698
tp49
a(F-71.104193
F42.346968
tp50
a(F-71.104217
F42.346965
tp51
a(F-71.104232
F42.346962
tp52
a(F-71.10424
F42.346957
tp53
a(F-71.10427
F42.34695
tp54
a(F-71.104293
F42.346942
tp55
a(F-71.104323
F42.34693
tp56
a(F-71.104377
F42.34692
tp57
a(F-71.104438
F42.3469
tp58
a(F-71.104515
F42.346877
tp59
a(F-71.104605
F42.34685
tp60
a(F-71.10469
F42.346823
tp61
a(F-71.104773
F42.346797
tp62
a(F-71.104865
F42.346775
tp63
a(F-71.104948
F42.346748
tp64
a(F-71.10504
F42.346725
tp65
a(F-71.105132
F42.346702
tp66
a(F-71.105232
F42.346683
tp67
a(F-71.105323
F42.346657
tp68
a(F-71.105407
F42.346633
tp69
a(F-71.10549
F42.346607
tp70
a(F-71.10559
F42.34658
tp71
a(F-71.105682
F42.346557
tp72
a(F-71.105788
F42.346533
tp73
a(F-71.105888
F42.346503
tp74
a(F-71.105978
F42.34648
tp75
a(F-71.106063
F42.346458
tp76
a(F-71.10614
F42.346435
tp77
a(F-71.106208
F42.346415
tp78
a(F-71.106277
F42.346393
tp79
a(F-71.106353
F42.34637
tp80
a(F-71.106445
F42.346343
tp81
a(F-71.106537
F42.346323
tp82
a(F-71.10662
F42.346297
tp83
a(F-71.106697
F42.346278
tp84
a(F-71.106757
F42.34626
tp85
a(F-71.106827
F42.34624
tp86
a(F-71.106902
F42.346217
tp87
a(F-71.106978
F42.346198
tp88
a(F-71.107062
F42.346178
tp89
a(F-71.107138
F42.346157
tp90
a(F-71.107207
F42.346142
tp91
a(F-71.10726
F42.346125
tp92
a(F-71.10733
F42.346107
tp93
a(F-71.107383
F42.346088
tp94
a(F-71.107443
F42.346072
tp95
a(F-71.107497
F42.346057
tp96
a(F-71.107558
F42.346042
tp97
a(F-71.107612
F42.346027
tp98
a(F-71.107673
F42.346012
tp99
a(F-71.107718
F42.345997
tp100
a(F-71.107748
F42.345988
tp101
a(F-71.107772
F42.345985
tp102
a(F-71.107787
F42.345985
tp103
a(F-71.10781
F42.345977
tp104
a(F-71.107825
F42.34597
tp105
a(F-71.107848
F42.345965
tp106
a(F-71.107872
F42.345965
tp107
a(F-71.107902
F42.345958
tp108
a(F-71.107932
F42.34595
tp109
a(F-71.107955
F42.345947
tp110
a(F-71.107993
F42.345935
tp111
a(F-71.108032
F42.345923
tp112
a(F-71.108085
F42.345908
tp113
a(F-71.10813
F42.345897
tp114
a(F-71.108183
F42.345885
tp115
a(F-71.108222
F42.345873
tp116
a(F-71.108253
F42.345867
tp117
a(F-71.108275
F42.345858
tp118
a(F-71.10829
F42.345847
tp119
a(F-71.108328
F42.34584
tp120
a(F-71.108367
F42.345828
tp121
a(F-71.108413
F42.345813
tp122
a(F-71.108473
F42.345798
tp123
a(F-71.108535
F42.345782
tp124
a(F-71.108597
F42.345767
tp125
a(F-71.10865
F42.345752
tp126
a(F-71.108688
F42.345737
tp127
a(F-71.108742
F42.345725
tp128
a(F-71.10881
F42.345707
tp129
a(F-71.108887
F42.345683
tp130
a(F-71.108962
F42.345663
tp131
a(F-71.109053
F42.345637
tp132
a(F-71.109145
F42.34561
tp133
a(F-71.109245
F42.345583
tp134
a(F-71.109358
F42.34555
tp135
a(F-71.109482
F42.345515
tp136
a(F-71.109595
F42.345482
tp137
a(F-71.109717
F42.34545
tp138
a(F-71.109808
F42.345417
tp139
a(F-71.109878
F42.345393
tp140
a(F-71.109938
F42.345382
tp141
a(F-71.109985
F42.34537
tp142
a(F-71.110038
F42.345358
tp143
a(F-71.110092
F42.345343
tp144
a(F-71.110168
F42.34532
tp145
a(F-71.11026
F42.345298
tp146
a(F-71.11035
F42.345272
tp147
a(F-71.11045
F42.345248
tp148
a(F-71.110548
F42.345222
tp149
a(F-71.110648
F42.345192
tp150
a(F-71.110747
F42.345172
tp151
a(F-71.110832
F42.345145
tp152
a(F-71.11093
F42.345115
tp153
a(F-71.11103
F42.345092
tp154
a(F-71.111137
F42.345058
tp155
a(F-71.111243
F42.345027
tp156
a(F-71.11135
F42.344997
tp157
a(F-71.111465
F42.344967
tp158
a(F-71.111563
F42.344932
tp159
a(F-71.111655
F42.344902
tp160
a(F-71.111755
F42.344875
tp161
a(F-71.111862
F42.344843
tp162
a(F-71.11196
F42.344813
tp163
a(F-71.112067
F42.344787
tp164
a(F-71.112182
F42.344757
tp165
a(F-71.112282
F42.34473
tp166
a(F-71.11251
F42.344668
tp167
a(F-71.112617
F42.344635
tp168
a(F-71.112738
F42.344607
tp169
a(F-71.112853
F42.344577
tp170
a(F-71.112975
F42.344543
tp171
a(F-71.113097
F42.344512
tp172
a(F-71.113212
F42.344482
tp173
a(F-71.113327
F42.344455
tp174
a(F-71.113433
F42.34442
tp175
a(F-71.113532
F42.344393
tp176
a(F-71.113647
F42.344363
tp177
a(F-71.113738
F42.344337
tp178
a(F-71.113837
F42.34431
tp179
a(F-71.113928
F42.344283
tp180
a(F-71.114028
F42.344257
tp181
a(F-71.114127
F42.34423
tp182
a(F-71.114227
F42.344207
tp183
a(F-71.114325
F42.34418
tp184
aa.